(lp0
S'A wife and child of ISIS leader Abu Bakr al-Baghdadi were detained in Lebanon'
p1
aS'Jihadist Khalil al-Britani was killed'
p2
aS'The president of Argentina became the adopted godmother of a boy to help stop him from becoming a werewolf'
p3
aS'Anonymous street artist Banksy was arrested'
p4
aS'Abdel-Majed Abdel Bary beheaded James Wright Foley'
p5
aS'Big Bank Hank of the Sugarhill Gang is dead'
p6
aS'Seven underage Bosnian girls got pregnant on a school trip'
p7
aS'A 50-foot crab was photographed in the U.K.'
p8
aS'NBC meteorologist Mike Seidel was caught relieving himself on camera'
p9
aS'An abandoned dog was found at Scottish railway station with a suitcase of his belongings'
p10
aS'The US threatened to prosecute the family of slain journalist James Foley'
p11
aS"Saudi Arabia's national airline will introduce gender segregation on flights"
p12
aS'Canadian-Israeli Gill Rosenberg captured by ISIS while fighting with Kurdish forces'
p13
aS'The U.S. killed Ahmed Abdi Godane in an airstrike'
p14
aS"Protestors in Hong Kong adopted Hands up, don't shoot from Ferguson"
p15
aS'A N.Y. high schooler earned 72 million in the stock market'
p16
aS"YouTube star Josh Paler Lin gave a homeless man 100 and filmed how he spent it without the man's knowledge"
p17
aS'ISIS captured a U.S. airdrop of weapons intended for Kurdish fighters'
p18
aS'ISIS is a mile away from Baghdad'
p19
aS'ISIS beheaded British aid worker Daivd Haines'
p20
aS'ISIS fighters are being trained to fly three captured fighter jets'
p21
aS'ISIS fighters were caught trying to enter the U.S. via the U.S.-Mexico border'
p22
aS'ISIS is harvesting and selling human organs to help fund its operations'
p23
aS'ISIS leader Abu Bakr al-Baghdadi was killed by an U.S. airstrike'
p24
aS'ISIS beheaded journalist James Wright Foley'
p25
aS'ISIS is trying to sell the remains of James Foley'
p26
aS'An nun in an Italian convent gave birth to a child'
p27
aS'Jihadi John is a Londoner named Mohammed Emwazi'
p28
aS'ISIS fighter Jihadi John was injured in an airstrike'
p29
aS'Kim Jong Un broke both of his ankles'
p30
aS'Kim Jong Un is ill because he eats too much cheese'
p31
aS'Kevin Vickers, the Sergeant-at-Arms in the House of Commons, shot a gunman on Parliament Hill'
p32
aS'Kurdish fighter Rehana was killed by ISIS'
p33
aS'Macaulay Culkin is dead'
p34
aS'A Russian boy attracts metal objects with his body after being hit with jolt of electricity'
p35
aS"Charles Manson's fiance wanted to marry him to obtain custody of his corpse"
p36
aS'Video shows a U.S. Marine surviving being shot in the helmet'
p37
aS'Mass grave found in Mexico holds bodies of missing students'
p38
aS'A meteorite landed in Nicaragua.'
p39
aS'Three missing Afghan soldiers were found trying to enter Canada'
p40
aS'North Korea plans to open a restaurant in Scotland'
p41
aS'New York Police will start issuing tickets, rather than make arrests, for small amounts of marijuana'
p42
aS'An oil pipeline exploded in Saudi Arabia'
p43
aS'A Video shows sexist Peruvian men being tricked into harassing their own mothers'
p44
aS"Pope Francis told a boy whose dog had died that Paradise is open to all of God's creatures"
p45
aS'A predator drone was sighted over Raqqa, Syria'
p46
aS"A Catholic priest who was declared clinically dead says he met God and she's a woman"
p47
aS'Joan Rivers doctor took a selfie during her operation'
p48
aS'A Saudi cleric declared that snowmen are anti-Islamic'
p49
aS'Seth Rogen will play Steve Wozniak in a film about Steve Jobs'
p50
aS"There's an audio recording of the Michael Brown shooting"
p51
aS'A soldier was shot at the War Memorial in Ottawa, Canada'
p52
aS'ISIS beheads Steve Sotloff'
p53
aS"A tropical spider burrowed under a man's skin"
p54
aS'J.J. Abrams wants a summer release date for Star Wars: Episode VII'
p55
aS'At least one of the Taliban Five exchanged for soldier Bowe Bergdahl is trying to return to militancy'
p56
aS'Taylor Lianne Chandler was born intersex'
p57
aS'Jess Smith of Chatham, Kent was the smiling sun baby in the Teletubbies TV show'
p58
aS'Tesla is building its gigfactory in Nevada'
p59
aS"A Texas plumbing company's truck is now being used by militant Islamist fighters in Syria"
p60
aS'A Florida woman got a third breast'
p61
aS"Vogue magazine's new offices are infested with rats"
p62
aS'A woman lost her eye after being hit with a bean bag shot by police in Ferguson'
p63
aS"A woman woke up during brain surgery and talked about cats, asked the surgeons How's it going?"
p64
aS'ISIS leader Abu Bakr al-Baghdadi was wounded in U.S. Airstrike'
p65
aS'11 commercial aircraft went missing from the Tripoli airport'
p66
aS'Egyptian President al-Sisi proposed expanding the Gaza Strip through Sinai land'
p67
aS"Comcast got a man fired from his job after he complained about the company's service"
p68
aS'There is a case of Ebola in Kansas City'
p69
aS'American hostage Luke Somers was killed during a rescue attempt'
p70
aS'Some ISIS fighters have contracted Ebola'
p71
aS'ISIS used chlorine gas in an attack near Fallujah'
p72
aS"Kim Jong Un's sister has been put in charge of the country"
p73
aS"The Indian government fired an employee who hadn't been to work in 24 years"
p74
aS'The Nigerian government and Boko Haram have reached a ceasefire agreement'
p75
aS'The attacker shot and killed on Parliament Hill is named Michael Zehaf-Bibeau'
p76
aS'Vice Media CEO Shane Smith paid 300,000 for a Las Vegas dinner'
p77
aS'Durex is launching a pumpkin spice condom'
p78
aS'Tiger Woods is serving a suspension from the PGA Tour after failing a drug test'
p79
aS'White House fence-jumper made it inside the main floor'
p80
a.