(lp0
S'A wife and child of ISIS leader Abu Bakr al-Baghdadi were detained in Lebanon'
p1
aS'Jihadist Khalil al-Britani was killed'
p2
aS'Apple is buying Path'
p3
aS'The president of Argentina became the adopted godmother of a boy to help stop him from becoming a werewolf'
p4
aS'Anonymous street artist Banksy was arrested'
p5
aS'Abdel-Majed Abdel Bary beheaded James Wright Foley'
p6
aS'The Batmobile was stolen'
p7
aS'A man was saved from a bear attack thanks to a Justin Bieber ringtone'
p8
aS'Big Bank Hank of the Sugarhill Gang is dead'
p9
aS'Seven underage Bosnian girls got pregnant on a school trip'
p10
aS'A 50-foot crab was photographed in the U.K.'
p11
aS'NBC meteorologist Mike Seidel was caught relieving himself on camera'
p12
aS'An abandoned dog was found at Scottish railway station with a suitcase of his belongings'
p13
aS'The US threatened to prosecute the family of slain journalist James Foley'
p14
aS"Saudi Arabia's national airline will introduce gender segregation on flights"
p15
aS'Canadian-Israeli Gill Rosenberg captured by ISIS while fighting with Kurdish forces'
p16
aS'The U.S. killed Ahmed Abdi Godane in an airstrike'
p17
aS"Protestors in Hong Kong adopted Hands up, don't shoot from Ferguson"
p18
aS'A N.Y. high schooler earned 72 million in the stock market'
p19
aS"YouTube star Josh Paler Lin gave a homeless man 100 and filmed how he spent it without the man's knowledge"
p20
aS'Claim Hewlett-Packard will split itself into two separate companies'
p21
aS'Reset All Settings option in iOS 8 deletes iWork files'
p22
aS'The iPhone 6s will have a dual-lens camera'
p23
aS'The iPhone 6 pulls out facial hair when being used'
p24
aS'ISIS captured a U.S. airdrop of weapons intended for Kurdish fighters'
p25
aS'ISIS is a mile away from Baghdad'
p26
aS'ISIS beheaded British aid worker Daivd Haines'
p27
aS'ISIS fighters are being trained to fly three captured fighter jets'
p28
aS'ISIS fighters were caught trying to enter the U.S. via the U.S.-Mexico border'
p29
aS'ISIS is harvesting and selling human organs to help fund its operations'
p30
aS'ISIS leader Abu Bakr al-Baghdadi was killed by an U.S. airstrike'
p31
aS'ISIS beheaded journalist James Wright Foley'
p32
aS'ISIS is trying to sell the remains of James Foley'
p33
aS'An nun in an Italian convent gave birth to a child'
p34
aS'Jihadi John is a Londoner named Mohammed Emwazi'
p35
aS'ISIS fighter Jihadi John was injured in an airstrike'
p36
aS'Kim Jong Un broke both of his ankles'
p37
aS'Kim Jong Un is ill because he eats too much cheese'
p38
aS'Kevin Vickers, the Sergeant-at-Arms in the House of Commons, shot a gunman on Parliament Hill'
p39
aS'Kurdish fighter Rehana was killed by ISIS'
p40
aS'Lenovo will make a bid to buy Blackberry'
p41
aS'Macaulay Culkin is dead'
p42
aS'A Russian boy attracts metal objects with his body after being hit with jolt of electricity'
p43
aS"Charles Manson's fiance wanted to marry him to obtain custody of his corpse"
p44
aS'Video shows a U.S. Marine surviving being shot in the helmet'
p45
aS'Mass grave found in Mexico holds bodies of missing students'
p46
aS'A meteorite landed in Nicaragua.'
p47
aS'A cat that was hit by a car and believed dead dug himself out of his grave'
p48
aS'Three missing Afghan soldiers were found trying to enter Canada'
p49
aS'Microsoft is going to acquire Mojang AB'
p50
aS'North Korea plans to open a restaurant in Scotland'
p51
aS'New York Police will start issuing tickets, rather than make arrests, for small amounts of marijuana'
p52
aS'An oil pipeline exploded in Saudi Arabia'
p53
aS'A Video shows sexist Peruvian men being tricked into harassing their own mothers'
p54
aS"Pope Francis told a boy whose dog had died that Paradise is open to all of God's creatures"
p55
aS'A predator drone was sighted over Raqqa, Syria'
p56
aS"A Catholic priest who was declared clinically dead says he met God and she's a woman"
p57
aS'Joan Rivers doctor took a selfie during her operation'
p58
aS'A Saudi cleric declared that snowmen are anti-Islamic'
p59
aS'Seth Rogen will play Steve Wozniak in a film about Steve Jobs'
p60
aS"There's an audio recording of the Michael Brown shooting"
p61
aS'A soldier was shot at the War Memorial in Ottawa, Canada'
p62
aS'ISIS beheads Steve Sotloff'
p63
aS"A tropical spider burrowed under a man's skin"
p64
aS'J.J. Abrams wants a summer release date for Star Wars: Episode VII'
p65
aS'At least one of the Taliban Five exchanged for soldier Bowe Bergdahl is trying to return to militancy'
p66
aS'Taylor Lianne Chandler was born intersex'
p67
aS'Jess Smith of Chatham, Kent was the smiling sun baby in the Teletubbies TV show'
p68
aS'Tesla is building its gigfactory in Nevada'
p69
aS"A Texas plumbing company's truck is now being used by militant Islamist fighters in Syria"
p70
aS'A Florida woman got a third breast'
p71
aS"Vogue magazine's new offices are infested with rats"
p72
aS'A woman lost her eye after being hit with a bean bag shot by police in Ferguson'
p73
aS"A woman woke up during brain surgery and talked about cats, asked the surgeons How's it going?"
p74
aS'ISIS leader Abu Bakr al-Baghdadi was wounded in U.S. Airstrike'
p75
aS'11 commercial aircraft went missing from the Tripoli airport'
p76
aS'Egyptian President al-Sisi proposed expanding the Gaza Strip through Sinai land'
p77
aS'HBO Now streaming subscription is coming to Apple TV'
p78
aS'Christian Bale to play Steve Jobs in an upcoming bio flick'
p79
aS"Comcast got a man fired from his job after he complained about the company's service"
p80
aS'There is a case of Ebola in Kansas City'
p81
aS'American hostage Luke Somers was killed during a rescue attempt'
p82
aS'Some ISIS fighters have contracted Ebola'
p83
aS'ISIS used chlorine gas in an attack near Fallujah'
p84
aS"Kim Jong Un's sister has been put in charge of the country"
p85
aS"The Indian government fired an employee who hadn't been to work in 24 years"
p86
aS'The Nigerian government and Boko Haram have reached a ceasefire agreement'
p87
aS'The attacker shot and killed on Parliament Hill is named Michael Zehaf-Bibeau'
p88
aS'Vice Media CEO Shane Smith paid 300,000 for a Las Vegas dinner'
p89
aS'Durex is launching a pumpkin spice condom'
p90
aS'Tiger Woods is serving a suspension from the PGA Tour after failing a drug test'
p91
aS'White House fence-jumper made it inside the main floor'
p92
a.